; Function Attrs: nounwind uwtable
define internal range(i32 0, 2) i32 @encode_case_14_dec(ptr noundef %0, i64 noundef %1) #0 {
  %3 = alloca i64, align 8
  %4 = alloca i64, align 8
  call void @llvm.lifetime.start.p0(i64 8, ptr nonnull %3) #4
  store i64 0, ptr %3, align 8, !tbaa !13
  call void @llvm.lifetime.start.p0(i64 8, ptr nonnull %4) #4
  store i64 0, ptr %4, align 8, !tbaa !13
  %5 = call i32 @ossl_quic_wire_decode_frame_stream_data_blocked(ptr noundef %0, ptr noundef nonnull %3, ptr noundef nonnull %4) #4
  %.lobit = lshr i64 %1, 63
  %6 = trunc nuw nsw i64 %.lobit to i32
  %7 = call i32 @test_int_eq(ptr noundef nonnull @.str.5, i32 noundef 642, ptr noundef nonnull @.str.99, ptr noundef nonnull @.str.23, i32 noundef %5, i32 noundef %6) #4
  %.not = icmp eq i32 %7, 0
  br i1 %.not, label %16, label %8

8:                                                ; preds = %2
  %9 = icmp sgt i64 %1, -1
  br i1 %9, label %16, label %10

10:                                               ; preds = %8
  %11 = load i64, ptr %3, align 8, !tbaa !13
  %12 = call i32 @test_uint64_t_eq(ptr noundef nonnull @.str.5, i32 noundef 648, ptr noundef nonnull @.str.80, ptr noundef nonnull @.str.55, i64 noundef %11, i64 noundef 4660) #4
  %.not3 = icmp eq i32 %12, 0
  br i1 %.not3, label %16, label %13

13:                                               ; preds = %10
  %14 = load i64, ptr %4, align 8, !tbaa !13
  %15 = call i32 @test_uint64_t_eq(ptr noundef nonnull @.str.5, i32 noundef 651, ptr noundef nonnull @.str.77, ptr noundef nonnull @.str.81, i64 noundef %14, i64 noundef 38785) #4
  %.not4 = icmp ne i32 %15, 0
  %. = zext i1 %.not4 to i32
  br label %16

16:                                               ; preds = %13, %10, %8, %2
  %.0 = phi i32 [ 0, %2 ], [ 1, %8 ], [ 0, %10 ], [ %., %13 ]
  call void @llvm.lifetime.end.p0(i64 8, ptr nonnull %4) #4
  call void @llvm.lifetime.end.p0(i64 8, ptr nonnull %3) #4
  ret i32 %.0
}